target datalayout = "e-m:e-p270:32:32-p271:32:32-p272:64:64-i64:64-i128:128-f80:128-n8:16:32:64-S128"
target triple = "x86_64-pc-linux-gnu"

%struct.DefElem = type { i32, ptr, ptr, ptr, i32, i32 }
%struct.Node = type { i32 }
%struct.Integer = type { i32, i32 }

@.str.1 = private unnamed_addr constant [9 x i8] c"define.c\00", align 1
@.str.11 = private unnamed_addr constant [29 x i8] c"%s requires an integer value\00", align 1
@__func__.defGetInt32 = private unnamed_addr constant [12 x i8] c"defGetInt32\00", align 1

; Function Attrs: nounwind uwtable
define dso_local i32 @defGetInt32(ptr noundef %0) #0 {
  %2 = alloca i32, align 4
  %3 = alloca ptr, align 8
  store ptr %0, ptr %3, align 8
  %4 = load ptr, ptr %3, align 8
  %5 = getelementptr inbounds nuw %struct.DefElem, ptr %4, i32 0, i32 3
  %6 = load ptr, ptr %5, align 8
  %7 = icmp eq ptr %6, null
  br i1 %7, label %8, label %22

8:                                                ; preds = %1
  br label %9

9:                                                ; preds = %8
  br i1 true, label %10, label %12

10:                                               ; preds = %9
  %11 = call zeroext i1 @errstart_cold(i32 noundef 21, ptr noundef null) #9
  br i1 %11, label %14, label %20

12:                                               ; preds = %9
  %13 = call zeroext i1 @errstart(i32 noundef 21, ptr noundef null)
  br i1 %13, label %14, label %20

14:                                               ; preds = %12, %10
  %15 = call i32 @errcode(i32 noundef 16801924)
  %16 = load ptr, ptr %3, align 8
  %17 = getelementptr inbounds nuw %struct.DefElem, ptr %16, i32 0, i32 2
  %18 = load ptr, ptr %17, align 8
  %19 = call i32 (ptr, ...) @errmsg(ptr noundef @.str.11, ptr noundef %18)
  call void @errfinish(ptr noundef @.str.1, i32 noundef 155, ptr noundef @__func__.defGetInt32)
  br label %20

20:                                               ; preds = %14, %12, %10
  unreachable

21:                                               ; No predecessors!
  br label %22

22:                                               ; preds = %21, %1
  %23 = load ptr, ptr %3, align 8
  %24 = getelementptr inbounds nuw %struct.DefElem, ptr %23, i32 0, i32 3
  %25 = load ptr, ptr %24, align 8
  %26 = getelementptr inbounds nuw %struct.Node, ptr %25, i32 0, i32 0
  %27 = load i32, ptr %26, align 4
  switch i32 %27, label %34 [
    i32 464, label %28
  ]

28:                                               ; preds = %22
  %29 = load ptr, ptr %3, align 8
  %30 = getelementptr inbounds nuw %struct.DefElem, ptr %29, i32 0, i32 3
  %31 = load ptr, ptr %30, align 8
  %32 = getelementptr inbounds nuw %struct.Integer, ptr %31, i32 0, i32 1
  %33 = load i32, ptr %32, align 4
  store i32 %33, ptr %2, align 4
  br label %49

34:                                               ; preds = %22
  br label %35

35:                                               ; preds = %34
  br i1 true, label %36, label %38

36:                                               ; preds = %35
  %37 = call zeroext i1 @errstart_cold(i32 noundef 21, ptr noundef null) #9
  br i1 %37, label %40, label %46

38:                                               ; preds = %35
  %39 = call zeroext i1 @errstart(i32 noundef 21, ptr noundef null)
  br i1 %39, label %40, label %46

40:                                               ; preds = %38, %36
  %41 = call i32 @errcode(i32 noundef 16801924)
  %42 = load ptr, ptr %3, align 8
  %43 = getelementptr inbounds nuw %struct.DefElem, ptr %42, i32 0, i32 2
  %44 = load ptr, ptr %43, align 8
  %45 = call i32 (ptr, ...) @errmsg(ptr noundef @.str.11, ptr noundef %44)
  call void @errfinish(ptr noundef @.str.1, i32 noundef 164, ptr noundef @__func__.defGetInt32)
  br label %46

46:                                               ; preds = %40, %38, %36
  unreachable

47:                                               ; No predecessors!
  br label %48

48:                                               ; preds = %47
  store i32 0, ptr %2, align 4
  br label %49

49:                                               ; preds = %48, %28
  %50 = load i32, ptr %2, align 4
  ret i32 %50
}