; Function Attrs: nounwind uwtable
define dso_local i32 @defGetInt32(ptr noundef readonly captures(none) %0) local_unnamed_addr #0 {
  %2 = getelementptr inbounds nuw i8, ptr %0, i64 24
  %3 = load ptr, ptr %2, align 8
  %4 = icmp eq ptr %3, null
  br i1 %4, label %5, label %11

5:                                                ; preds = %1
  %6 = tail call zeroext i1 @errstart_cold(i32 noundef 21, ptr noundef null) #6
  tail call void @llvm.assume(i1 %6)
  %7 = tail call i32 @errcode(i32 noundef 16801924) #7
  %8 = getelementptr inbounds nuw i8, ptr %0, i64 16
  %9 = load ptr, ptr %8, align 8
  %10 = tail call i32 (ptr, ...) @errmsg(ptr noundef nonnull @.str.11, ptr noundef %9) #7
  tail call void @errfinish(ptr noundef nonnull @.str.1, i32 noundef 155, ptr noundef nonnull @__func__.defGetInt32) #7
  unreachable

11:                                               ; preds = %1
  %12 = load i32, ptr %3, align 4
  %cond = icmp eq i32 %12, 464
  br i1 %cond, label %13, label %16

13:                                               ; preds = %11
  %14 = getelementptr inbounds nuw i8, ptr %3, i64 4
  %15 = load i32, ptr %14, align 4
  ret i32 %15

16:                                               ; preds = %11
  %17 = tail call zeroext i1 @errstart_cold(i32 noundef 21, ptr noundef null) #6
  tail call void @llvm.assume(i1 %17)
  %18 = tail call i32 @errcode(i32 noundef 16801924) #7
  %19 = getelementptr inbounds nuw i8, ptr %0, i64 16
  %20 = load ptr, ptr %19, align 8
  %21 = tail call i32 (ptr, ...) @errmsg(ptr noundef nonnull @.str.11, ptr noundef %20) #7
  tail call void @errfinish(ptr noundef nonnull @.str.1, i32 noundef 164, ptr noundef nonnull @__func__.defGetInt32) #7
  unreachable
}